target datalayout = "e-m:e-p270:32:32-p271:32:32-p272:64:64-i64:64-i128:128-f80:128-n8:16:32:64-S128"
target triple = "x86_64-pc-linux-gnu"

%struct.bf_key_st = type { [18 x i32], [1024 x i32] }

@key_data = internal global [8 x i8] c"\FE\DC\BA\98vT2\10", align 1
@key_test = internal global [25 x i8] c"\F0\E1\D2\C3\B4\A5\96\87xiZK<-\1E\0F\00\11\223DUfw\88", align 16
@.str.40 = private unnamed_addr constant [25 x i8] c"../openssl/test/bftest.c\00", align 1
@.str.45 = private unnamed_addr constant [4 x i8] c"out\00", align 1
@.str.47 = private unnamed_addr constant [17 x i8] c"&(key_out[n][0])\00", align 1

; Function Attrs: nounwind uwtable
define internal i32 @test_bf_set_key(i32 noundef %0) #0 {
  %2 = alloca i32, align 4
  %3 = alloca i32, align 4
  %4 = alloca %struct.bf_key_st, align 4
  %5 = alloca [8 x i8], align 1
  store i32 %0, ptr %2, align 4, !tbaa !4
  call void @llvm.lifetime.start.p0(i64 4, ptr %3) #6
  store i32 1, ptr %3, align 4, !tbaa !4
  call void @llvm.lifetime.start.p0(i64 4168, ptr %4) #6
  call void @llvm.lifetime.start.p0(i64 8, ptr %5) #6
  %6 = load i32, ptr %2, align 4, !tbaa !4
  %7 = add nsw i32 %6, 1
  call void @BF_set_key(ptr noundef %4, i32 noundef %7, ptr noundef @key_test)
  %8 = getelementptr inbounds [8 x i8], ptr %5, i64 0, i64 0
  call void @BF_ecb_encrypt(ptr noundef @key_data, ptr noundef %8, ptr noundef %4, i32 noundef 1)
  %9 = getelementptr inbounds [8 x i8], ptr %5, i64 0, i64 0
  %10 = load i32, ptr %2, align 4, !tbaa !4
  %11 = sext i32 %10 to i64
  %12 = getelementptr inbounds [25 x [8 x i8]], ptr @key_out, i64 0, i64 %11
  %13 = getelementptr inbounds [8 x i8], ptr %12, i64 0, i64 0
  %14 = call i32 @test_mem_eq(ptr noundef @.str.40, i32 noundef 344, ptr noundef @.str.45, ptr noundef @.str.47, ptr noundef %9, i64 noundef 8, ptr noundef %13, i64 noundef 8)
  %15 = icmp ne i32 %14, 0
  br i1 %15, label %17, label %16

16:                                               ; preds = %1
  store i32 0, ptr %3, align 4, !tbaa !4
  br label %17

17:                                               ; preds = %16, %1
  %18 = load i32, ptr %3, align 4, !tbaa !4
  call void @llvm.lifetime.end.p0(i64 8, ptr %5) #6
  call void @llvm.lifetime.end.p0(i64 4168, ptr %4) #6
  call void @llvm.lifetime.end.p0(i64 4, ptr %3) #6
  ret i32 %18
}