; Function Attrs: nounwind uwtable
define internal range(i32 0, 2) i32 @test_bf_set_key(i32 noundef %0) #1 {
  %2 = alloca %struct.bf_key_st, align 4
  %3 = alloca [8 x i8], align 1
  call void @llvm.lifetime.start.p0(i64 4168, ptr nonnull %2) #8
  call void @llvm.lifetime.start.p0(i64 8, ptr nonnull %3) #8
  %4 = add nsw i32 %0, 1
  call void @BF_set_key(ptr noundef nonnull %2, i32 noundef %4, ptr noundef nonnull @key_test) #8
  call void @BF_ecb_encrypt(ptr noundef nonnull @key_data, ptr noundef nonnull %3, ptr noundef nonnull %2, i32 noundef 1) #8
  %5 = sext i32 %0 to i64
  %6 = getelementptr inbounds [25 x [8 x i8]], ptr @key_out, i64 0, i64 %5
  %7 = call i32 @test_mem_eq(ptr noundef nonnull @.str.40, i32 noundef 344, ptr noundef nonnull @.str.45, ptr noundef nonnull @.str.47, ptr noundef nonnull %3, i64 noundef 8, ptr noundef nonnull %6, i64 noundef 8) #8
  %.not = icmp ne i32 %7, 0
  %spec.select = zext i1 %.not to i32
  call void @llvm.lifetime.end.p0(i64 8, ptr nonnull %3) #8
  call void @llvm.lifetime.end.p0(i64 4168, ptr nonnull %2) #8
  ret i32 %spec.select
}